target datalayout = "e-m:e-p270:32:32-p271:32:32-p272:64:64-i64:64-i128:128-f80:128-n8:16:32:64-S128"
target triple = "x86_64-unknown-linux-gnu"

%"class.icu_75::RBBIDataWrapper" = type <{ ptr, ptr, ptr, ptr, ptr, i32, [4 x i8], ptr, %"struct.std::atomic", [4 x i8], ptr, %"class.icu_75::UnicodeString", i8, [7 x i8] }>
%"struct.std::atomic" = type { %"struct.std::__atomic_base" }
%"struct.std::__atomic_base" = type { i32 }
%"class.icu_75::UnicodeString" = type { %"class.icu_75::Replaceable", %"union.icu_75::UnicodeString::StackBufferOrFields" }
%"class.icu_75::Replaceable" = type { %"class.icu_75::UObject" }
%"class.icu_75::UObject" = type { ptr }
%"union.icu_75::UnicodeString::StackBufferOrFields" = type { %struct.anon.0, [32 x i8] }
%struct.anon.0 = type { i16, i32, i32, ptr }
%"struct.icu_75::RBBIDataHeader" = type { i32, [4 x i8], i32, i32, i32, i32, i32, i32, i32, i32, i32, i32, i32, i32, [6 x i32] }

; Function Attrs: mustprogress nounwind uwtable
define noundef zeroext i1 @_ZNK6icu_7515RBBIDataWrappereqERKS0_(ptr noundef nonnull align 8 dereferenceable(137) %this, ptr noundef nonnull align 8 dereferenceable(137) %other) #1 align 2 {
entry:
  %retval = alloca i1, align 1
  %this.addr = alloca ptr, align 8
  %other.addr = alloca ptr, align 8
  store ptr %this, ptr %this.addr, align 8
  store ptr %other, ptr %other.addr, align 8
  %this1 = load ptr, ptr %this.addr, align 8
  %fHeader = getelementptr inbounds %"class.icu_75::RBBIDataWrapper", ptr %this1, i32 0, i32 0
  %0 = load ptr, ptr %fHeader, align 8
  %1 = load ptr, ptr %other.addr, align 8
  %fHeader2 = getelementptr inbounds %"class.icu_75::RBBIDataWrapper", ptr %1, i32 0, i32 0
  %2 = load ptr, ptr %fHeader2, align 8
  %cmp = icmp eq ptr %0, %2
  br i1 %cmp, label %if.then, label %if.end

if.then:                                          ; preds = %entry
  store i1 true, ptr %retval, align 1
  br label %return

if.end:                                           ; preds = %entry
  %fHeader3 = getelementptr inbounds %"class.icu_75::RBBIDataWrapper", ptr %this1, i32 0, i32 0
  %3 = load ptr, ptr %fHeader3, align 8
  %fLength = getelementptr inbounds %"struct.icu_75::RBBIDataHeader", ptr %3, i32 0, i32 2
  %4 = load i32, ptr %fLength, align 4
  %5 = load ptr, ptr %other.addr, align 8
  %fHeader4 = getelementptr inbounds %"class.icu_75::RBBIDataWrapper", ptr %5, i32 0, i32 0
  %6 = load ptr, ptr %fHeader4, align 8
  %fLength5 = getelementptr inbounds %"struct.icu_75::RBBIDataHeader", ptr %6, i32 0, i32 2
  %7 = load i32, ptr %fLength5, align 4
  %cmp6 = icmp ne i32 %4, %7
  br i1 %cmp6, label %if.then7, label %if.end8

if.then7:                                         ; preds = %if.end
  store i1 false, ptr %retval, align 1
  br label %return

if.end8:                                          ; preds = %if.end
  %fHeader9 = getelementptr inbounds %"class.icu_75::RBBIDataWrapper", ptr %this1, i32 0, i32 0
  %8 = load ptr, ptr %fHeader9, align 8
  %9 = load ptr, ptr %other.addr, align 8
  %fHeader10 = getelementptr inbounds %"class.icu_75::RBBIDataWrapper", ptr %9, i32 0, i32 0
  %10 = load ptr, ptr %fHeader10, align 8
  %fHeader11 = getelementptr inbounds %"class.icu_75::RBBIDataWrapper", ptr %this1, i32 0, i32 0
  %11 = load ptr, ptr %fHeader11, align 8
  %fLength12 = getelementptr inbounds %"struct.icu_75::RBBIDataHeader", ptr %11, i32 0, i32 2
  %12 = load i32, ptr %fLength12, align 4
  %conv = zext i32 %12 to i64
  %call = call i32 @memcmp(ptr noundef %8, ptr noundef %10, i64 noundef %conv) #10
  %cmp13 = icmp eq i32 %call, 0
  br i1 %cmp13, label %if.then14, label %if.end15

if.then14:                                        ; preds = %if.end8
  store i1 true, ptr %retval, align 1
  br label %return

if.end15:                                         ; preds = %if.end8
  store i1 false, ptr %retval, align 1
  br label %return

return:                                           ; preds = %if.end15, %if.then14, %if.then7, %if.then
  %13 = load i1, ptr %retval, align 1
  ret i1 %13
}