; Function Attrs: mustprogress nofree nounwind willreturn memory(read, inaccessiblemem: none) uwtable
define noundef zeroext i1 @_ZNK6icu_7515RBBIDataWrappereqERKS0_(ptr nocapture noundef nonnull readonly align 8 dereferenceable(137) %this, ptr nocapture noundef nonnull readonly align 8 dereferenceable(137) %other) local_unnamed_addr #7 align 2 {
entry:
  %0 = load ptr, ptr %this, align 8
  %1 = load ptr, ptr %other, align 8
  %cmp = icmp eq ptr %0, %1
  br i1 %cmp, label %return, label %if.end

if.end:                                           ; preds = %entry
  %fLength = getelementptr inbounds i8, ptr %0, i64 8
  %2 = load i32, ptr %fLength, align 4
  %fLength5 = getelementptr inbounds i8, ptr %1, i64 8
  %3 = load i32, ptr %fLength5, align 4
  %cmp6.not = icmp eq i32 %2, %3
  br i1 %cmp6.not, label %if.end8, label %return

if.end8:                                          ; preds = %if.end
  %conv = zext i32 %2 to i64
  %bcmp = tail call i32 @bcmp(ptr nonnull %0, ptr nonnull %1, i64 %conv)
  %cmp13 = icmp eq i32 %bcmp, 0
  br label %return

return:                                           ; preds = %if.end8, %if.end, %entry
  %retval.0 = phi i1 [ true, %entry ], [ false, %if.end ], [ %cmp13, %if.end8 ]
  ret i1 %retval.0
}